target datalayout = "e-m:e-p270:32:32-p271:32:32-p272:64:64-i64:64-i128:128-f80:128-n8:16:32:64-S128"
target triple = "x86_64-pc-linux-gnu"

%struct.redisServer = type { i32, i64, ptr, ptr, ptr, i32, i32, i32, i32, i32, ptr, ptr, ptr, ptr, ptr, i32, i32, i32, i32, i64, i32, i32, i32, i32, ptr, i32, i32, [41 x i8], i32, i64, i32, i32, i32, ptr, ptr, i32, i32, i64, ptr, ptr, ptr, ptr, [2 x i32], i32, i32, i32, i32, i32, i32, [16 x ptr], i32, ptr, ptr, i32, [8 x %struct.connListener], i32, %struct.connListener, ptr, ptr, ptr, ptr, ptr, ptr, ptr, ptr, ptr, ptr, i32, ptr, i32, ptr, [3 x %struct.pause_event], [256 x i8], ptr, i64, i32, i32, [128 x i32], i32, i32, i64, i32, i32, i32, i32, i32, i64, i64, i64, i64, i64, i64, i64, i64, i64, i64, double, i64, i64, i64, i64, i64, i64, i64, i64, i64, i64, i64, i64, i64, i64, i64, i64, i64, i64, i64, i64, i64, double, i64, i64, i64, i64, i64, ptr, i64, i64, i64, %struct.malloc_stats, i64, i64, i64, i64, i64, i64, i64, i64, i64, i64, i64, i64, double, [4 x i64], i64, i64, i64, i64, [128 x i64], [128 x i64], i64, i64, [7 x %struct.anon], i64, i64, i64, i64, i64, i64, [4 x %struct.durationStats], i32, i32, i32, i32, i32, i32, i32, i32, i32, i32, i32, i32, i64, i32, i32, i32, i32, i64, i64, i32, i32, i32, i32, i32, ptr, [3 x %struct.clientBufferLimitsConfig], i32, i32, i32, ptr, i32, i32, i32, i32, i32, i32, ptr, ptr, i32, i32, i64, i64, i64, i64, i64, i32, i32, ptr, i32, i32, i64, i64, i64, i64, i64, i32, i32, i64, i32, i32, i32, i32, i32, i32, i32, i32, ptr, i32, i64, i64, i64, i64, i32, ptr, i32, ptr, i32, i32, i32, i64, i64, i64, i64, i32, i32, i32, i32, i32, i32, ptr, i32, i32, ptr, i32, i32, i32, [2 x i32], i32, %struct.redisOpArray, i32, ptr, i32, ptr, i32, i32, i32, i32, i32, i32, i32, [41 x i8], [41 x i8], i64, i64, i64, i64, i32, i32, ptr, i64, i64, %struct.replDataBuf, i64, i64, i32, i32, i32, i32, i32, i32, i32, i32, i32, i64, ptr, i64, ptr, ptr, ptr, i32, i32, ptr, ptr, i32, i32, i32, i64, i64, i64, i64, ptr, ptr, i32, ptr, i64, i32, i32, i32, i64, i32, i32, i32, i32, ptr, i32, i32, [41 x i8], i64, i32, ptr, i32, i32, i64, i64, i32, i32, i32, i32, i32, i64, [3 x i32], i32, i32, i32, [10 x i32], ptr, ptr, i32, i64, ptr, ptr, i32, i32, i32, i32, i64, i64, i64, i64, i64, i64, i64, i64, i64, i64, i32, i32, i64, i64, i32, i64, i64, i64, i64, i64, ptr, ptr, i32, ptr, i32, i32, i32, i32, i64, i64, ptr, ptr, i32, i32, i32, i32, i32, ptr, ptr, ptr, i32, i32, i32, i32, i32, i32, i32, i64, i32, i32, i64, i32, i32, i32, i32, i32, i32, i32, i64, ptr, ptr, i64, ptr, i32, %struct.aclInfo, i32, i64, i32, i32, i32, %struct.redisTLSContextConfig, ptr, ptr, ptr, ptr, ptr, i64, i32, ptr, i32, i32, i32, i64, i32, ptr }
%struct.connListener = type { [16 x i32], i32, ptr, i32, i32, ptr, ptr }
%struct.pause_event = type { i32, i64 }
%struct.malloc_stats = type { i64, i64, i64, i64, i64, i64, i64, i64, i64, i64, i64 }
%struct.anon = type { i64, i64, [16 x i64], i32 }
%struct.durationStats = type { i64, i64, i64 }
%struct.clientBufferLimitsConfig = type { i64, i64, i64 }
%struct.redisOpArray = type { ptr, i32, i32 }
%struct.replDataBuf = type { ptr, i64, i64, i64, i64 }
%struct.aclInfo = type { i64, i64, i64, i64 }
%struct.redisTLSContextConfig = type { ptr, ptr, ptr, ptr, ptr, ptr, ptr, ptr, ptr, ptr, ptr, ptr, i32, i32, i32, i32 }

@server = external global %struct.redisServer, align 8
@.str.35 = private unnamed_addr constant [4 x i8] c"RDB\00", align 1
@.str.44 = private unnamed_addr constant [17 x i8] c"redis-rdb-bgsave\00", align 1
@.str.45 = private unnamed_addr constant [35 x i8] c"Can't save in background: fork: %s\00", align 1
@.str.46 = private unnamed_addr constant [37 x i8] c"Background saving started by pid %ld\00", align 1

; Function Attrs: nounwind uwtable
define dso_local i32 @rdbSaveBackground(i32 noundef %0, ptr noundef %1, ptr noundef %2, i32 noundef %3) #0 {
  %5 = alloca i32, align 4
  %6 = alloca i32, align 4
  %7 = alloca ptr, align 8
  %8 = alloca ptr, align 8
  %9 = alloca i32, align 4
  %10 = alloca i32, align 4
  %11 = alloca i32, align 4
  %12 = alloca i32, align 4
  store i32 %0, ptr %6, align 4, !tbaa !5
  store ptr %1, ptr %7, align 8, !tbaa !9
  store ptr %2, ptr %8, align 8, !tbaa !179
  store i32 %3, ptr %9, align 4, !tbaa !5
  call void @llvm.lifetime.start.p0(i64 4, ptr %10) #15
  %13 = call i32 @hasActiveChildProcess()
  %14 = icmp ne i32 %13, 0
  br i1 %14, label %15, label %16

15:                                               ; preds = %4
  store i32 -1, ptr %5, align 4
  store i32 1, ptr %11, align 4
  br label %64

16:                                               ; preds = %4
  %17 = load i64, ptr getelementptr inbounds nuw (%struct.redisServer, ptr @server, i32 0, i32 116), align 8, !tbaa !214
  %18 = add nsw i64 %17, 1
  store i64 %18, ptr getelementptr inbounds nuw (%struct.redisServer, ptr @server, i32 0, i32 116), align 8, !tbaa !214
  %19 = load i64, ptr getelementptr inbounds nuw (%struct.redisServer, ptr @server, i32 0, i32 227), align 8, !tbaa !211
  store i64 %19, ptr getelementptr inbounds nuw (%struct.redisServer, ptr @server, i32 0, i32 228), align 8, !tbaa !215
  %20 = call i64 @time(ptr noundef null) #15
  store i64 %20, ptr getelementptr inbounds nuw (%struct.redisServer, ptr @server, i32 0, i32 239), align 8, !tbaa !216
  %21 = call i32 @redisFork(i32 noundef 1)
  store i32 %21, ptr %10, align 4, !tbaa !5
  %22 = icmp eq i32 %21, 0
  br i1 %22, label %23, label %38

23:                                               ; preds = %16
  call void @llvm.lifetime.start.p0(i64 4, ptr %12) #15
  %24 = call i32 @redisSetProcTitle(ptr noundef @.str.44)
  %25 = load ptr, ptr getelementptr inbounds nuw (%struct.redisServer, ptr @server, i32 0, i32 428), align 8, !tbaa !217
  call void @redisSetCpuAffinity(ptr noundef %25)
  %26 = load i32, ptr %6, align 4, !tbaa !5
  %27 = load ptr, ptr %7, align 8, !tbaa !9
  %28 = load ptr, ptr %8, align 8, !tbaa !179
  %29 = load i32, ptr %9, align 4, !tbaa !5
  %30 = call i32 @rdbSave(i32 noundef %26, ptr noundef %27, ptr noundef %28, i32 noundef %29)
  store i32 %30, ptr %12, align 4, !tbaa !5
  %31 = load i32, ptr %12, align 4, !tbaa !5
  %32 = icmp eq i32 %31, 0
  br i1 %32, label %33, label %34

33:                                               ; preds = %23
  call void @sendChildCowInfo(i32 noundef 2, ptr noundef @.str.35)
  br label %34

34:                                               ; preds = %33, %23
  %35 = load i32, ptr %12, align 4, !tbaa !5
  %36 = icmp eq i32 %35, 0
  %37 = select i1 %36, i32 0, i32 1
  call void @exitFromChild(i32 noundef %37)
  call void @llvm.lifetime.end.p0(i64 4, ptr %12) #15
  br label %63

38:                                               ; preds = %16
  %39 = load i32, ptr %10, align 4, !tbaa !5
  %40 = icmp eq i32 %39, -1
  br i1 %40, label %41, label %52

41:                                               ; preds = %38
  store i32 -1, ptr getelementptr inbounds nuw (%struct.redisServer, ptr @server, i32 0, i32 244), align 8, !tbaa !213
  br label %42

42:                                               ; preds = %41
  %43 = load i32, ptr getelementptr inbounds nuw (%struct.redisServer, ptr @server, i32 0, i32 159), align 8, !tbaa !52
  %44 = icmp slt i32 3, %43
  br i1 %44, label %45, label %46

45:                                               ; preds = %42
  br label %51

46:                                               ; preds = %42
  %47 = call ptr @__errno_location() #19
  %48 = load i32, ptr %47, align 4, !tbaa !5
  %49 = call ptr @strerror(i32 noundef %48) #15
  call void (i32, ptr, ...) @_serverLog(i32 noundef 3, ptr noundef @.str.45, ptr noundef %49)
  br label %50

50:                                               ; preds = %46
  br label %51

51:                                               ; preds = %50, %45
  store i32 -1, ptr %5, align 4
  store i32 1, ptr %11, align 4
  br label %64

52:                                               ; preds = %38
  br label %53

53:                                               ; preds = %52
  %54 = load i32, ptr getelementptr inbounds nuw (%struct.redisServer, ptr @server, i32 0, i32 159), align 8, !tbaa !52
  %55 = icmp slt i32 2, %54
  br i1 %55, label %56, label %57

56:                                               ; preds = %53
  br label %61

57:                                               ; preds = %53
  %58 = load i32, ptr %10, align 4, !tbaa !5
  %59 = sext i32 %58 to i64
  call void (i32, ptr, ...) @_serverLog(i32 noundef 2, ptr noundef @.str.46, i64 noundef %59)
  br label %60

60:                                               ; preds = %57
  br label %61

61:                                               ; preds = %60, %56
  %62 = call i64 @time(ptr noundef null) #15
  store i64 %62, ptr getelementptr inbounds nuw (%struct.redisServer, ptr @server, i32 0, i32 241), align 8, !tbaa !218
  store i32 1, ptr getelementptr inbounds nuw (%struct.redisServer, ptr @server, i32 0, i32 243), align 4, !tbaa !219
  store i32 0, ptr %5, align 4
  store i32 1, ptr %11, align 4
  br label %64

63:                                               ; preds = %34
  store i32 0, ptr %5, align 4
  store i32 1, ptr %11, align 4
  br label %64

64:                                               ; preds = %63, %61, %51, %15
  call void @llvm.lifetime.end.p0(i64 4, ptr %10) #15
  %65 = load i32, ptr %5, align 4
  ret i32 %65
}