; Function Attrs: nounwind uwtable
define dso_local range(i32 -1, 1) i32 @rdbSaveBackground(i32 noundef %0, ptr noundef %1, ptr noundef captures(address_is_null) %2, i32 noundef %3) local_unnamed_addr #0 {
  %5 = tail call i32 @hasActiveChildProcess() #23
  %.not = icmp eq i32 %5, 0
  br i1 %.not, label %6, label %34

6:                                                ; preds = %4
  %7 = load i64, ptr getelementptr inbounds nuw (i8, ptr @server, i64 2664), align 8, !tbaa !173
  %8 = add nsw i64 %7, 1
  store i64 %8, ptr getelementptr inbounds nuw (i8, ptr @server, i64 2664), align 8, !tbaa !173
  %9 = load i64, ptr getelementptr inbounds nuw (i8, ptr @server, i64 6720), align 8, !tbaa !170
  store i64 %9, ptr getelementptr inbounds nuw (i8, ptr @server, i64 6728), align 8, !tbaa !174
  %10 = tail call i64 @time(ptr noundef null) #23
  store i64 %10, ptr getelementptr inbounds nuw (i8, ptr @server, i64 6808), align 8, !tbaa !175
  %11 = tail call i32 @redisFork(i32 noundef 1) #23
  switch i32 %11, label %27 [
    i32 0, label %12
    i32 -1, label %20
  ]

12:                                               ; preds = %6
  %13 = tail call i32 @redisSetProcTitle(ptr noundef nonnull @.str.44) #23
  %14 = load ptr, ptr getelementptr inbounds nuw (i8, ptr @server, i64 8312), align 8, !tbaa !176
  tail call void @redisSetCpuAffinity(ptr noundef %14) #23
  %15 = tail call i32 @rdbSave(i32 noundef %0, ptr noundef %1, ptr noundef %2, i32 noundef %3)
  %16 = icmp ne i32 %15, 0
  br i1 %16, label %18, label %17

17:                                               ; preds = %12
  tail call void @sendChildCowInfo(i32 noundef 2, ptr noundef nonnull @.str.35) #23
  br label %18

18:                                               ; preds = %17, %12
  %19 = zext i1 %16 to i32
  tail call void @exitFromChild(i32 noundef %19) #23
  br label %34

20:                                               ; preds = %6
  store i32 -1, ptr getelementptr inbounds nuw (i8, ptr @server, i64 6840), align 8, !tbaa !172
  %21 = load i32, ptr getelementptr inbounds nuw (i8, ptr @server, i64 6288), align 8, !tbaa !50
  %22 = icmp sgt i32 %21, 3
  br i1 %22, label %34, label %23

23:                                               ; preds = %20
  %24 = tail call ptr @__errno_location() #28
  %25 = load i32, ptr %24, align 4, !tbaa !51
  %26 = tail call ptr @strerror(i32 noundef %25) #23
  tail call void (i32, ptr, ...) @_serverLog(i32 noundef 3, ptr noundef nonnull @.str.45, ptr noundef %26) #23
  br label %34

27:                                               ; preds = %6
  %28 = load i32, ptr getelementptr inbounds nuw (i8, ptr @server, i64 6288), align 8, !tbaa !50
  %29 = icmp sgt i32 %28, 2
  br i1 %29, label %32, label %30

30:                                               ; preds = %27
  %31 = sext i32 %11 to i64
  tail call void (i32, ptr, ...) @_serverLog(i32 noundef 2, ptr noundef nonnull @.str.46, i64 noundef %31) #23
  br label %32

32:                                               ; preds = %27, %30
  %33 = tail call i64 @time(ptr noundef null) #23
  store i64 %33, ptr getelementptr inbounds nuw (i8, ptr @server, i64 6824), align 8, !tbaa !177
  store i32 1, ptr getelementptr inbounds nuw (i8, ptr @server, i64 6836), align 4, !tbaa !178
  br label %34

34:                                               ; preds = %23, %20, %4, %18, %32
  %.0 = phi i32 [ 0, %18 ], [ 0, %32 ], [ -1, %4 ], [ -1, %20 ], [ -1, %23 ]
  ret i32 %.0
}